; Function Attrs: mustprogress nounwind uwtable
define internal fastcc void @_ZN12_GLOBAL__N_120DOCTEST_ANON_CLASS_3D2Ev(ptr noundef nonnull align 8 dereferenceable(56) %0) unnamed_addr #5 align 2 personality ptr @__gxx_personality_v0 {
  %2 = getelementptr inbounds i8, ptr %0, i64 24
  tail call void @_ZNSt7__cxx1112basic_stringIcSt11char_traitsIcESaIcEED1Ev(ptr noundef nonnull align 8 dereferenceable(32) %2) #15
  %3 = getelementptr inbounds i8, ptr %0, i64 16
  %4 = load ptr, ptr %3, align 8
  %.not.i.i = icmp eq ptr %4, null
  br i1 %.not.i.i, label %_ZN11ReplFixtureD2Ev.exit, label %5

5:                                                ; preds = %1
  %6 = getelementptr inbounds i8, ptr %0, i64 8
  %7 = load ptr, ptr %6, align 8
  invoke void %7(ptr noundef nonnull %4)
          to label %_ZN11ReplFixtureD2Ev.exit unwind label %8

8:                                                ; preds = %5
  %9 = landingpad { ptr, i32 }
          catch ptr null
  %10 = extractvalue { ptr, i32 } %9, 0
  tail call void @__clang_call_terminate(ptr %10) #16
  unreachable

_ZN11ReplFixtureD2Ev.exit:                        ; preds = %1, %5
  store ptr null, ptr %3, align 8
  ret void
}